target datalayout = "e-m:e-p270:32:32-p271:32:32-p272:64:64-i64:64-i128:128-f80:128-n8:16:32:64-S128"
target triple = "x86_64-pc-linux-gnu"

%struct.AvifInfoInternalFeatures = type { i8, i8, i8, %struct.AvifInfoFeatures, i8, i8, [16 x %struct.AvifInfoInternalTile], i8, [32 x %struct.AvifInfoInternalProp], i8, [8 x %struct.AvifInfoInternalDimProp], i8, [8 x %struct.AvifInfoInternalChanProp] }
%struct.AvifInfoFeatures = type { i32, i32, i32, i32 }
%struct.AvifInfoInternalTile = type { i8, i8 }
%struct.AvifInfoInternalProp = type { i8, i8 }
%struct.AvifInfoInternalDimProp = type { i8, i32, i32 }
%struct.AvifInfoInternalChanProp = type { i8, i8, i8 }

; Function Attrs: nounwind uwtable
define internal i32 @AvifInfoInternalGetItemFeatures(ptr noundef %0, i32 noundef %1, i32 noundef %2) #0 {
  %4 = alloca i32, align 4
  %5 = alloca ptr, align 8
  %6 = alloca i32, align 4
  %7 = alloca i32, align 4
  %8 = alloca i32, align 4
  %9 = alloca i32, align 4
  %10 = alloca i32, align 4
  %11 = alloca i32, align 4
  %12 = alloca i32, align 4
  %13 = alloca i32, align 4
  store ptr %0, ptr %5, align 8
  store i32 %1, ptr %6, align 4
  store i32 %2, ptr %7, align 4
  store i32 0, ptr %8, align 4
  br label %14

14:                                               ; preds = %191, %3
  %15 = load i32, ptr %8, align 4
  %16 = load ptr, ptr %5, align 8
  %17 = getelementptr inbounds %struct.AvifInfoInternalFeatures, ptr %16, i32 0, i32 7
  %18 = load i8, ptr %17, align 2
  %19 = zext i8 %18 to i32
  %20 = icmp ult i32 %15, %19
  br i1 %20, label %21, label %194

21:                                               ; preds = %14
  %22 = load ptr, ptr %5, align 8
  %23 = getelementptr inbounds %struct.AvifInfoInternalFeatures, ptr %22, i32 0, i32 8
  %24 = load i32, ptr %8, align 4
  %25 = zext i32 %24 to i64
  %26 = getelementptr inbounds [32 x %struct.AvifInfoInternalProp], ptr %23, i64 0, i64 %25
  %27 = getelementptr inbounds %struct.AvifInfoInternalProp, ptr %26, i32 0, i32 1
  %28 = load i8, ptr %27, align 1
  %29 = zext i8 %28 to i32
  %30 = load i32, ptr %6, align 4
  %31 = icmp ne i32 %29, %30
  br i1 %31, label %32, label %33

32:                                               ; preds = %21
  br label %191

33:                                               ; preds = %21
  %34 = load ptr, ptr %5, align 8
  %35 = getelementptr inbounds %struct.AvifInfoInternalFeatures, ptr %34, i32 0, i32 8
  %36 = load i32, ptr %8, align 4
  %37 = zext i32 %36 to i64
  %38 = getelementptr inbounds [32 x %struct.AvifInfoInternalProp], ptr %35, i64 0, i64 %37
  %39 = getelementptr inbounds %struct.AvifInfoInternalProp, ptr %38, i32 0, i32 0
  %40 = load i8, ptr %39, align 1
  %41 = zext i8 %40 to i32
  store i32 %41, ptr %9, align 4
  %42 = load i32, ptr %6, align 4
  %43 = load ptr, ptr %5, align 8
  %44 = getelementptr inbounds %struct.AvifInfoInternalFeatures, ptr %43, i32 0, i32 2
  %45 = load i8, ptr %44, align 2
  %46 = zext i8 %45 to i32
  %47 = icmp eq i32 %42, %46
  br i1 %47, label %48, label %118

48:                                               ; preds = %33
  %49 = load ptr, ptr %5, align 8
  %50 = getelementptr inbounds %struct.AvifInfoInternalFeatures, ptr %49, i32 0, i32 3
  %51 = getelementptr inbounds %struct.AvifInfoFeatures, ptr %50, i32 0, i32 0
  %52 = load i32, ptr %51, align 4
  %53 = icmp eq i32 %52, 0
  br i1 %53, label %60, label %54

54:                                               ; preds = %48
  %55 = load ptr, ptr %5, align 8
  %56 = getelementptr inbounds %struct.AvifInfoInternalFeatures, ptr %55, i32 0, i32 3
  %57 = getelementptr inbounds %struct.AvifInfoFeatures, ptr %56, i32 0, i32 1
  %58 = load i32, ptr %57, align 4
  %59 = icmp eq i32 %58, 0
  br i1 %59, label %60, label %118

60:                                               ; preds = %54, %48
  store i32 0, ptr %10, align 4
  br label %61

61:                                               ; preds = %114, %60
  %62 = load i32, ptr %10, align 4
  %63 = load ptr, ptr %5, align 8
  %64 = getelementptr inbounds %struct.AvifInfoInternalFeatures, ptr %63, i32 0, i32 9
  %65 = load i8, ptr %64, align 1
  %66 = zext i8 %65 to i32
  %67 = icmp ult i32 %62, %66
  br i1 %67, label %68, label %117

68:                                               ; preds = %61
  %69 = load ptr, ptr %5, align 8
  %70 = getelementptr inbounds %struct.AvifInfoInternalFeatures, ptr %69, i32 0, i32 10
  %71 = load i32, ptr %10, align 4
  %72 = zext i32 %71 to i64
  %73 = getelementptr inbounds [8 x %struct.AvifInfoInternalDimProp], ptr %70, i64 0, i64 %72
  %74 = getelementptr inbounds %struct.AvifInfoInternalDimProp, ptr %73, i32 0, i32 0
  %75 = load i8, ptr %74, align 4
  %76 = zext i8 %75 to i32
  %77 = load i32, ptr %9, align 4
  %78 = icmp ne i32 %76, %77
  br i1 %78, label %79, label %80

79:                                               ; preds = %68
  br label %114

80:                                               ; preds = %68
  %81 = load ptr, ptr %5, align 8
  %82 = getelementptr inbounds %struct.AvifInfoInternalFeatures, ptr %81, i32 0, i32 10
  %83 = load i32, ptr %10, align 4
  %84 = zext i32 %83 to i64
  %85 = getelementptr inbounds [8 x %struct.AvifInfoInternalDimProp], ptr %82, i64 0, i64 %84
  %86 = getelementptr inbounds %struct.AvifInfoInternalDimProp, ptr %85, i32 0, i32 1
  %87 = load i32, ptr %86, align 4
  %88 = load ptr, ptr %5, align 8
  %89 = getelementptr inbounds %struct.AvifInfoInternalFeatures, ptr %88, i32 0, i32 3
  %90 = getelementptr inbounds %struct.AvifInfoFeatures, ptr %89, i32 0, i32 0
  store i32 %87, ptr %90, align 4
  %91 = load ptr, ptr %5, align 8
  %92 = getelementptr inbounds %struct.AvifInfoInternalFeatures, ptr %91, i32 0, i32 10
  %93 = load i32, ptr %10, align 4
  %94 = zext i32 %93 to i64
  %95 = getelementptr inbounds [8 x %struct.AvifInfoInternalDimProp], ptr %92, i64 0, i64 %94
  %96 = getelementptr inbounds %struct.AvifInfoInternalDimProp, ptr %95, i32 0, i32 2
  %97 = load i32, ptr %96, align 4
  %98 = load ptr, ptr %5, align 8
  %99 = getelementptr inbounds %struct.AvifInfoInternalFeatures, ptr %98, i32 0, i32 3
  %100 = getelementptr inbounds %struct.AvifInfoFeatures, ptr %99, i32 0, i32 1
  store i32 %97, ptr %100, align 4
  %101 = load ptr, ptr %5, align 8
  %102 = getelementptr inbounds %struct.AvifInfoInternalFeatures, ptr %101, i32 0, i32 3
  %103 = getelementptr inbounds %struct.AvifInfoFeatures, ptr %102, i32 0, i32 2
  %104 = load i32, ptr %103, align 4
  %105 = icmp ne i32 %104, 0
  br i1 %105, label %106, label %113

106:                                              ; preds = %80
  %107 = load ptr, ptr %5, align 8
  %108 = getelementptr inbounds %struct.AvifInfoInternalFeatures, ptr %107, i32 0, i32 3
  %109 = getelementptr inbounds %struct.AvifInfoFeatures, ptr %108, i32 0, i32 3
  %110 = load i32, ptr %109, align 4
  %111 = icmp ne i32 %110, 0
  br i1 %111, label %112, label %113

112:                                              ; preds = %106
  store i32 0, ptr %4, align 4
  br label %248

113:                                              ; preds = %106, %80
  br label %117

114:                                              ; preds = %79
  %115 = load i32, ptr %10, align 4
  %116 = add i32 %115, 1
  store i32 %116, ptr %10, align 4
  br label %61

117:                                              ; preds = %113, %61
  br label %118

118:                                              ; preds = %117, %54, %33
  %119 = load ptr, ptr %5, align 8
  %120 = getelementptr inbounds %struct.AvifInfoInternalFeatures, ptr %119, i32 0, i32 3
  %121 = getelementptr inbounds %struct.AvifInfoFeatures, ptr %120, i32 0, i32 2
  %122 = load i32, ptr %121, align 4
  %123 = icmp eq i32 %122, 0
  br i1 %123, label %130, label %124

124:                                              ; preds = %118
  %125 = load ptr, ptr %5, align 8
  %126 = getelementptr inbounds %struct.AvifInfoInternalFeatures, ptr %125, i32 0, i32 3
  %127 = getelementptr inbounds %struct.AvifInfoFeatures, ptr %126, i32 0, i32 3
  %128 = load i32, ptr %127, align 4
  %129 = icmp eq i32 %128, 0
  br i1 %129, label %130, label %190

130:                                              ; preds = %124, %118
  store i32 0, ptr %11, align 4
  br label %131

131:                                              ; preds = %186, %130
  %132 = load i32, ptr %11, align 4
  %133 = load ptr, ptr %5, align 8
  %134 = getelementptr inbounds %struct.AvifInfoInternalFeatures, ptr %133, i32 0, i32 11
  %135 = load i8, ptr %134, align 4
  %136 = zext i8 %135 to i32
  %137 = icmp ult i32 %132, %136
  br i1 %137, label %138, label %189

138:                                              ; preds = %131
  %139 = load ptr, ptr %5, align 8
  %140 = getelementptr inbounds %struct.AvifInfoInternalFeatures, ptr %139, i32 0, i32 12
  %141 = load i32, ptr %11, align 4
  %142 = zext i32 %141 to i64
  %143 = getelementptr inbounds [8 x %struct.AvifInfoInternalChanProp], ptr %140, i64 0, i64 %142
  %144 = getelementptr inbounds %struct.AvifInfoInternalChanProp, ptr %143, i32 0, i32 0
  %145 = load i8, ptr %144, align 1
  %146 = zext i8 %145 to i32
  %147 = load i32, ptr %9, align 4
  %148 = icmp ne i32 %146, %147
  br i1 %148, label %149, label %150

149:                                              ; preds = %138
  br label %186

150:                                              ; preds = %138
  %151 = load ptr, ptr %5, align 8
  %152 = getelementptr inbounds %struct.AvifInfoInternalFeatures, ptr %151, i32 0, i32 12
  %153 = load i32, ptr %11, align 4
  %154 = zext i32 %153 to i64
  %155 = getelementptr inbounds [8 x %struct.AvifInfoInternalChanProp], ptr %152, i64 0, i64 %154
  %156 = getelementptr inbounds %struct.AvifInfoInternalChanProp, ptr %155, i32 0, i32 1
  %157 = load i8, ptr %156, align 1
  %158 = zext i8 %157 to i32
  %159 = load ptr, ptr %5, align 8
  %160 = getelementptr inbounds %struct.AvifInfoInternalFeatures, ptr %159, i32 0, i32 3
  %161 = getelementptr inbounds %struct.AvifInfoFeatures, ptr %160, i32 0, i32 2
  store i32 %158, ptr %161, align 4
  %162 = load ptr, ptr %5, align 8
  %163 = getelementptr inbounds %struct.AvifInfoInternalFeatures, ptr %162, i32 0, i32 12
  %164 = load i32, ptr %11, align 4
  %165 = zext i32 %164 to i64
  %166 = getelementptr inbounds [8 x %struct.AvifInfoInternalChanProp], ptr %163, i64 0, i64 %165
  %167 = getelementptr inbounds %struct.AvifInfoInternalChanProp, ptr %166, i32 0, i32 2
  %168 = load i8, ptr %167, align 1
  %169 = zext i8 %168 to i32
  %170 = load ptr, ptr %5, align 8
  %171 = getelementptr inbounds %struct.AvifInfoInternalFeatures, ptr %170, i32 0, i32 3
  %172 = getelementptr inbounds %struct.AvifInfoFeatures, ptr %171, i32 0, i32 3
  store i32 %169, ptr %172, align 4
  %173 = load ptr, ptr %5, align 8
  %174 = getelementptr inbounds %struct.AvifInfoInternalFeatures, ptr %173, i32 0, i32 3
  %175 = getelementptr inbounds %struct.AvifInfoFeatures, ptr %174, i32 0, i32 0
  %176 = load i32, ptr %175, align 4
  %177 = icmp ne i32 %176, 0
  br i1 %177, label %178, label %185

178:                                              ; preds = %150
  %179 = load ptr, ptr %5, align 8
  %180 = getelementptr inbounds %struct.AvifInfoInternalFeatures, ptr %179, i32 0, i32 3
  %181 = getelementptr inbounds %struct.AvifInfoFeatures, ptr %180, i32 0, i32 1
  %182 = load i32, ptr %181, align 4
  %183 = icmp ne i32 %182, 0
  br i1 %183, label %184, label %185

184:                                              ; preds = %178
  store i32 0, ptr %4, align 4
  br label %248

185:                                              ; preds = %178, %150
  br label %189

186:                                              ; preds = %149
  %187 = load i32, ptr %11, align 4
  %188 = add i32 %187, 1
  store i32 %188, ptr %11, align 4
  br label %131

189:                                              ; preds = %185, %131
  br label %190

190:                                              ; preds = %189, %124
  br label %191

191:                                              ; preds = %190, %32
  %192 = load i32, ptr %8, align 4
  %193 = add i32 %192, 1
  store i32 %193, ptr %8, align 4
  br label %14

194:                                              ; preds = %14
  store i32 0, ptr %12, align 4
  br label %195

195:                                              ; preds = %243, %194
  %196 = load i32, ptr %12, align 4
  %197 = load ptr, ptr %5, align 8
  %198 = getelementptr inbounds %struct.AvifInfoInternalFeatures, ptr %197, i32 0, i32 5
  %199 = load i8, ptr %198, align 1
  %200 = zext i8 %199 to i32
  %201 = icmp ult i32 %196, %200
  br i1 %201, label %202, label %205

202:                                              ; preds = %195
  %203 = load i32, ptr %7, align 4
  %204 = icmp ult i32 %203, 3
  br label %205

205:                                              ; preds = %202, %195
  %206 = phi i1 [ false, %195 ], [ %204, %202 ]
  br i1 %206, label %207, label %246

207:                                              ; preds = %205
  %208 = load ptr, ptr %5, align 8
  %209 = getelementptr inbounds %struct.AvifInfoInternalFeatures, ptr %208, i32 0, i32 6
  %210 = load i32, ptr %12, align 4
  %211 = zext i32 %210 to i64
  %212 = getelementptr inbounds [16 x %struct.AvifInfoInternalTile], ptr %209, i64 0, i64 %211
  %213 = getelementptr inbounds %struct.AvifInfoInternalTile, ptr %212, i32 0, i32 1
  %214 = load i8, ptr %213, align 1
  %215 = zext i8 %214 to i32
  %216 = load i32, ptr %6, align 4
  %217 = icmp ne i32 %215, %216
  br i1 %217, label %218, label %219

218:                                              ; preds = %207
  br label %243

219:                                              ; preds = %207
  br label %220

220:                                              ; preds = %219
  %221 = load ptr, ptr %5, align 8
  %222 = load ptr, ptr %5, align 8
  %223 = getelementptr inbounds %struct.AvifInfoInternalFeatures, ptr %222, i32 0, i32 6
  %224 = load i32, ptr %12, align 4
  %225 = zext i32 %224 to i64
  %226 = getelementptr inbounds [16 x %struct.AvifInfoInternalTile], ptr %223, i64 0, i64 %225
  %227 = getelementptr inbounds %struct.AvifInfoInternalTile, ptr %226, i32 0, i32 0
  %228 = load i8, ptr %227, align 2
  %229 = zext i8 %228 to i32
  %230 = load i32, ptr %7, align 4
  %231 = add i32 %230, 1
  %232 = call i32 @AvifInfoInternalGetItemFeatures(ptr noundef %221, i32 noundef %229, i32 noundef %231)
  store i32 %232, ptr %13, align 4
  br label %233

233:                                              ; preds = %220
  %234 = load i32, ptr %13, align 4
  %235 = icmp eq i32 %234, 1
  br i1 %235, label %240, label %236

236:                                              ; preds = %233
  br label %237

237:                                              ; preds = %236
  %238 = load i32, ptr %13, align 4
  store i32 %238, ptr %4, align 4
  br label %248

239:                                              ; No predecessors!
  br label %240

240:                                              ; preds = %239, %233
  br label %241

241:                                              ; preds = %240
  br label %242

242:                                              ; preds = %241
  br label %243

243:                                              ; preds = %242, %218
  %244 = load i32, ptr %12, align 4
  %245 = add i32 %244, 1
  store i32 %245, ptr %12, align 4
  br label %195

246:                                              ; preds = %205
  br label %247

247:                                              ; preds = %246
  store i32 1, ptr %4, align 4
  br label %248

248:                                              ; preds = %247, %237, %184, %112
  %249 = load i32, ptr %4, align 4
  ret i32 %249
}