; Function Attrs: nofree nosync nounwind memory(argmem: readwrite) uwtable
define internal fastcc noundef i32 @AvifInfoInternalGetItemFeatures(ptr nocapture noundef %0, i32 noundef %1, i32 noundef %2) unnamed_addr #5 {
  %4 = getelementptr inbounds i8, ptr %0, i64 54
  %5 = load i8, ptr %4, align 2
  %.not84 = icmp eq i8 %5, 0
  br i1 %.not84, label %.preheader, label %.lr.ph78

.lr.ph78:                                         ; preds = %3
  %6 = getelementptr inbounds i8, ptr %0, i64 55
  %7 = getelementptr inbounds i8, ptr %0, i64 2
  %8 = getelementptr inbounds i8, ptr %0, i64 4
  %9 = getelementptr inbounds i8, ptr %0, i64 8
  %10 = getelementptr inbounds i8, ptr %0, i64 119
  %11 = getelementptr inbounds i8, ptr %0, i64 120
  %12 = getelementptr inbounds i8, ptr %0, i64 12
  %13 = getelementptr inbounds i8, ptr %0, i64 16
  %14 = getelementptr inbounds i8, ptr %0, i64 216
  %15 = getelementptr inbounds i8, ptr %0, i64 217
  %wide.trip.count100 = zext i8 %5 to i64
  br label %23

.preheader:                                       ; preds = %.loopexit70, %3
  %16 = getelementptr inbounds i8, ptr %0, i64 21
  %17 = icmp ult i32 %2, 3
  %18 = load i8, ptr %16, align 1
  %19 = icmp ne i8 %18, 0
  %20 = and i1 %17, %19
  br i1 %20, label %.lr.ph80, label %.loopexit

.lr.ph80:                                         ; preds = %.preheader
  %21 = getelementptr inbounds i8, ptr %0, i64 22
  %22 = add nuw nsw i32 %2, 1
  br label %67

23:                                               ; preds = %.lr.ph78, %.loopexit70
  %indvars.iv97 = phi i64 [ 0, %.lr.ph78 ], [ %indvars.iv.next98, %.loopexit70 ]
  %24 = getelementptr inbounds [32 x %struct.AvifInfoInternalProp], ptr %6, i64 0, i64 %indvars.iv97
  %25 = getelementptr inbounds i8, ptr %24, i64 1
  %26 = load i8, ptr %25, align 1
  %27 = zext i8 %26 to i32
  %.not63 = icmp eq i32 %27, %1
  br i1 %.not63, label %28, label %.loopexit70

28:                                               ; preds = %23
  %29 = load i8, ptr %24, align 1
  %30 = load i8, ptr %7, align 2
  %31 = zext i8 %30 to i32
  %32 = icmp eq i32 %31, %1
  br i1 %32, label %33, label %.loopexit71

33:                                               ; preds = %28
  %34 = load i32, ptr %8, align 4
  %35 = icmp eq i32 %34, 0
  br i1 %35, label %39, label %36

36:                                               ; preds = %33
  %37 = load i32, ptr %9, align 4
  %38 = icmp eq i32 %37, 0
  br i1 %38, label %39, label %.loopexit71

39:                                               ; preds = %36, %33
  %40 = load i8, ptr %10, align 1
  %.not85 = icmp eq i8 %40, 0
  br i1 %.not85, label %.loopexit71, label %.lr.ph.preheader

.lr.ph.preheader:                                 ; preds = %39
  %wide.trip.count = zext i8 %40 to i64
  br label %.lr.ph

41:                                               ; preds = %.lr.ph
  %indvars.iv.next = add nuw nsw i64 %indvars.iv, 1
  %exitcond.not = icmp eq i64 %indvars.iv.next, %wide.trip.count
  br i1 %exitcond.not, label %.loopexit71, label %.lr.ph

.lr.ph:                                           ; preds = %.lr.ph.preheader, %41
  %indvars.iv = phi i64 [ 0, %.lr.ph.preheader ], [ %indvars.iv.next, %41 ]
  %42 = getelementptr inbounds [8 x %struct.AvifInfoInternalDimProp], ptr %11, i64 0, i64 %indvars.iv
  %43 = load i8, ptr %42, align 4
  %.not64 = icmp eq i8 %43, %29
  br i1 %.not64, label %44, label %41

44:                                               ; preds = %.lr.ph
  %45 = getelementptr inbounds i8, ptr %42, i64 4
  %46 = load <2 x i32>, ptr %45, align 4
  store <2 x i32> %46, ptr %8, align 4
  %47 = load i32, ptr %12, align 4
  %.not65 = icmp eq i32 %47, 0
  br i1 %.not65, label %.loopexit71.thread, label %48

48:                                               ; preds = %44
  %49 = load i32, ptr %13, align 4
  %.not66 = icmp eq i32 %49, 0
  br i1 %.not66, label %.loopexit71.thread, label %.loopexit

.loopexit71:                                      ; preds = %41, %39, %36, %28
  %.pr = load i32, ptr %12, align 4
  %50 = icmp eq i32 %.pr, 0
  br i1 %50, label %.loopexit71.thread, label %51

51:                                               ; preds = %.loopexit71
  %.pr106 = load i32, ptr %13, align 4
  %52 = icmp eq i32 %.pr106, 0
  br i1 %52, label %.loopexit71.thread, label %.loopexit70

.loopexit71.thread:                               ; preds = %48, %44, %51, %.loopexit71
  %53 = load i8, ptr %14, align 4
  %.not86 = icmp eq i8 %53, 0
  br i1 %.not86, label %.loopexit70, label %.lr.ph76.preheader

.lr.ph76.preheader:                               ; preds = %.loopexit71.thread
  %wide.trip.count95 = zext i8 %53 to i64
  br label %.lr.ph76

54:                                               ; preds = %.lr.ph76
  %indvars.iv.next93 = add nuw nsw i64 %indvars.iv92, 1
  %exitcond96.not = icmp eq i64 %indvars.iv.next93, %wide.trip.count95
  br i1 %exitcond96.not, label %.loopexit70, label %.lr.ph76

.lr.ph76:                                         ; preds = %.lr.ph76.preheader, %54
  %indvars.iv92 = phi i64 [ 0, %.lr.ph76.preheader ], [ %indvars.iv.next93, %54 ]
  %55 = getelementptr inbounds [8 x %struct.AvifInfoInternalChanProp], ptr %15, i64 0, i64 %indvars.iv92
  %56 = load i8, ptr %55, align 1
  %.not67 = icmp eq i8 %56, %29
  br i1 %.not67, label %57, label %54

57:                                               ; preds = %.lr.ph76
  %58 = getelementptr inbounds i8, ptr %55, i64 1
  %59 = load i8, ptr %58, align 1
  %60 = zext i8 %59 to i32
  store i32 %60, ptr %12, align 4
  %61 = getelementptr inbounds i8, ptr %55, i64 2
  %62 = load i8, ptr %61, align 1
  %63 = zext i8 %62 to i32
  store i32 %63, ptr %13, align 4
  %64 = load i32, ptr %8, align 4
  %.not68 = icmp eq i32 %64, 0
  br i1 %.not68, label %.loopexit70, label %65

65:                                               ; preds = %57
  %66 = load i32, ptr %9, align 4
  %.not69 = icmp eq i32 %66, 0
  br i1 %.not69, label %.loopexit70, label %.loopexit

.loopexit70:                                      ; preds = %54, %.loopexit71.thread, %51, %57, %65, %23
  %indvars.iv.next98 = add nuw nsw i64 %indvars.iv97, 1
  %exitcond101.not = icmp eq i64 %indvars.iv.next98, %wide.trip.count100
  br i1 %exitcond101.not, label %.preheader, label %23

67:                                               ; preds = %.lr.ph80, %77
  %68 = phi i8 [ %18, %.lr.ph80 ], [ %78, %77 ]
  %indvars.iv102 = phi i64 [ 0, %.lr.ph80 ], [ %indvars.iv.next103, %77 ]
  %69 = getelementptr inbounds [16 x %struct.AvifInfoInternalTile], ptr %21, i64 0, i64 %indvars.iv102
  %70 = getelementptr inbounds i8, ptr %69, i64 1
  %71 = load i8, ptr %70, align 1
  %72 = zext i8 %71 to i32
  %.not = icmp eq i32 %72, %1
  br i1 %.not, label %73, label %77

73:                                               ; preds = %67
  %74 = load i8, ptr %69, align 2
  %75 = zext i8 %74 to i32
  %76 = tail call fastcc i32 @AvifInfoInternalGetItemFeatures(ptr noundef nonnull %0, i32 noundef %75, i32 noundef %22), !range !6
  %.not62 = icmp eq i32 %76, 0
  br i1 %.not62, label %.loopexit, label %._crit_edge

._crit_edge:                                      ; preds = %73
  %.pre = load i8, ptr %16, align 1
  br label %77

77:                                               ; preds = %._crit_edge, %67
  %78 = phi i8 [ %.pre, %._crit_edge ], [ %68, %67 ]
  %indvars.iv.next103 = add nuw nsw i64 %indvars.iv102, 1
  %79 = zext i8 %78 to i64
  %80 = icmp ult i64 %indvars.iv.next103, %79
  br i1 %80, label %67, label %.loopexit

.loopexit:                                        ; preds = %65, %48, %73, %77, %.preheader
  %.0 = phi i32 [ 1, %.preheader ], [ 0, %73 ], [ 1, %77 ], [ 0, %48 ], [ 0, %65 ]
  ret i32 %.0
}